; Function Attrs: mustprogress nofree norecurse nosync nounwind memory(readwrite, inaccessiblemem: none) uwtable
define dso_local noundef ptr @_ZNK5clang6format14TokenAnnotator30calculateInitializerColumnListERNS0_13AnnotatedLineEPNS0_11FormatTokenEj(ptr noundef nonnull readnone align 8 captures(none) dereferenceable(1000) %0, ptr noundef nonnull readonly align 8 captures(none) dereferenceable(80) %1, ptr noundef readonly %2, i32 noundef %3) local_unnamed_addr #4 align 2 {
  %5 = getelementptr inbounds nuw i8, ptr %1, i64 8
  %.not20 = icmp eq ptr %2, null
  br i1 %.not20, label %.critedge, label %.lr.ph

.lr.ph:                                           ; preds = %4, %22
  %.022 = phi i32 [ %.1, %22 ], [ %3, %4 ]
  %.01421 = phi ptr [ %24, %22 ], [ %2, %4 ]
  %6 = load ptr, ptr %5, align 8
  %.not18 = icmp eq ptr %.01421, %6
  br i1 %.not18, label %.critedge, label %7

7:                                                ; preds = %.lr.ph
  %8 = getelementptr inbounds nuw i8, ptr %.01421, i64 16
  %9 = load i16, ptr %8, align 8
  %10 = icmp eq i16 %9, 24
  %11 = icmp eq i16 %9, 25
  %12 = sext i1 %11 to i32
  %.1.v = select i1 %10, i32 1, i32 %12
  %.1 = add i32 %.1.v, %.022
  %13 = icmp eq i32 %.1, 2
  br i1 %13, label %14, label %22

14:                                               ; preds = %7
  switch i16 %9, label %22 [
    i16 66, label %15
    i16 24, label %15
  ]

15:                                               ; preds = %14, %14
  %16 = getelementptr inbounds nuw i8, ptr %.01421, i64 216
  %17 = load ptr, ptr %16, align 8
  %.not19 = icmp eq ptr %17, null
  br i1 %.not19, label %.critedge, label %18

18:                                               ; preds = %15
  %19 = getelementptr inbounds nuw i8, ptr %17, i64 224
  store i8 1, ptr %19, align 8
  %20 = getelementptr inbounds nuw i8, ptr %17, i64 208
  %21 = load ptr, ptr %20, align 8
  br label %22

22:                                               ; preds = %14, %18, %7
  %.2 = phi ptr [ %21, %18 ], [ %.01421, %14 ], [ %.01421, %7 ]
  %23 = getelementptr inbounds nuw i8, ptr %.2, i64 216
  %24 = load ptr, ptr %23, align 8
  %.not = icmp eq ptr %24, null
  br i1 %.not, label %.critedge, label %.lr.ph, !llvm.loop !66

.critedge:                                        ; preds = %.lr.ph, %15, %22, %4
  %.115 = phi ptr [ null, %4 ], [ null, %22 ], [ null, %15 ], [ %.01421, %.lr.ph ]
  ret ptr %.115
}